; Function Attrs: nounwind uwtable
define internal range(i32 0, 2) i32 @xor_sig_verify_init(ptr noundef captures(address_is_null) %0, ptr noundef %1, ptr readnone captures(none) %2) #0 {
  %4 = icmp eq ptr %0, null
  %5 = icmp eq ptr %1, null
  %or.cond.i = or i1 %4, %5
  br i1 %or.cond.i, label %xor_sig_signverify_init.exit, label %6

6:                                                ; preds = %3
  %7 = getelementptr inbounds nuw i8, ptr %0, i64 16
  %8 = load ptr, ptr %7, align 8, !tbaa !111
  %9 = icmp eq ptr %8, null
  br i1 %9, label %xor_freekey.exit.i, label %10

10:                                               ; preds = %6
  %11 = getelementptr inbounds nuw i8, ptr %8, i64 80
  %12 = atomicrmw sub ptr %11, i32 1 release, align 4
  %13 = icmp eq i32 %12, 1
  br i1 %13, label %CRYPTO_DOWN_REF.exit.thread.i.i, label %CRYPTO_DOWN_REF.exit.i.i

CRYPTO_DOWN_REF.exit.thread.i.i:                  ; preds = %10
  fence acquire
  br label %15

CRYPTO_DOWN_REF.exit.i.i:                         ; preds = %10
  %14 = icmp sgt i32 %12, 1
  br i1 %14, label %xor_freekey.exit.i, label %15

15:                                               ; preds = %CRYPTO_DOWN_REF.exit.i.i, %CRYPTO_DOWN_REF.exit.thread.i.i
  %16 = getelementptr inbounds nuw i8, ptr %8, i64 72
  %17 = load ptr, ptr %16, align 8, !tbaa !46
  tail call void @CRYPTO_free(ptr noundef %17, ptr noundef nonnull @.str.2, i32 noundef 720) #16
  store ptr null, ptr %16, align 8, !tbaa !46
  tail call void @CRYPTO_free(ptr noundef nonnull %8, ptr noundef nonnull @.str.2, i32 noundef 724) #16
  br label %xor_freekey.exit.i

xor_freekey.exit.i:                               ; preds = %15, %CRYPTO_DOWN_REF.exit.i.i, %6
  %18 = getelementptr inbounds nuw i8, ptr %1, i64 80
  %19 = atomicrmw add ptr %18, i32 1 monotonic, align 4
  %20 = icmp slt i32 %19, 1
  br i1 %20, label %xor_sig_signverify_init.exit, label %21

21:                                               ; preds = %xor_freekey.exit.i
  store ptr %1, ptr %7, align 8, !tbaa !111
  %22 = getelementptr inbounds nuw i8, ptr %0, i64 112
  store i32 32, ptr %22, align 8, !tbaa !112
  br label %xor_sig_signverify_init.exit

xor_sig_signverify_init.exit:                     ; preds = %3, %xor_freekey.exit.i, %21
  %.0.i = phi i32 [ 0, %3 ], [ 0, %xor_freekey.exit.i ], [ 1, %21 ]
  ret i32 %.0.i
}